target datalayout = "e-m:e-p270:32:32-p271:32:32-p272:64:64-i64:64-i128:128-f80:128-n8:16:32:64-S128"
target triple = "x86_64-unknown-linux-gnu"

%struct.UText = type { i32, i32, i32, i32, i64, i32, i32, i64, i32, i32, ptr, ptr, ptr, ptr, ptr, ptr, ptr, ptr, i64, i32, i32, i64, i32, i32 }

; Function Attrs: mustprogress nounwind uwtable
define internal void @_ZL17charIterTextCloseP5UText(ptr noundef %ut) #1 {
entry:
  %ut.addr = alloca ptr, align 8
  %ci = alloca ptr, align 8
  store ptr %ut, ptr %ut.addr, align 8
  %0 = load ptr, ptr %ut.addr, align 8
  %r = getelementptr inbounds %struct.UText, ptr %0, i32 0, i32 16
  %1 = load ptr, ptr %r, align 8
  store ptr %1, ptr %ci, align 8
  %2 = load ptr, ptr %ci, align 8
  %isnull = icmp eq ptr %2, null
  br i1 %isnull, label %delete.end, label %delete.notnull

delete.notnull:                                   ; preds = %entry
  %vtable = load ptr, ptr %2, align 8
  %vfn = getelementptr inbounds ptr, ptr %vtable, i64 1
  %3 = load ptr, ptr %vfn, align 8
  call void %3(ptr noundef nonnull align 8 dereferenceable(24) %2) #8
  br label %delete.end

delete.end:                                       ; preds = %delete.notnull, %entry
  %4 = load ptr, ptr %ut.addr, align 8
  %r1 = getelementptr inbounds %struct.UText, ptr %4, i32 0, i32 16
  store ptr null, ptr %r1, align 8
  ret void
}