; Function Attrs: mustprogress nounwind uwtable
define internal void @_ZL17charIterTextCloseP5UText(ptr nocapture noundef %ut) #9 {
entry:
  %r = getelementptr inbounds i8, ptr %ut, i64 96
  %0 = load ptr, ptr %r, align 8
  %isnull = icmp eq ptr %0, null
  br i1 %isnull, label %delete.end, label %delete.notnull

delete.notnull:                                   ; preds = %entry
  %vtable = load ptr, ptr %0, align 8
  %vfn = getelementptr inbounds i8, ptr %vtable, i64 8
  %1 = load ptr, ptr %vfn, align 8
  tail call void %1(ptr noundef nonnull align 8 dereferenceable(24) %0) #14
  br label %delete.end

delete.end:                                       ; preds = %delete.notnull, %entry
  store ptr null, ptr %r, align 8
  ret void
}